target datalayout = "e-m:e-p270:32:32-p271:32:32-p272:64:64-i64:64-i128:128-f80:128-n8:16:32:64-S128"
target triple = "x86_64-pc-linux-gnu"

%struct.ucvector = type { ptr, i64, i64 }

; Function Attrs: mustprogress nounwind uwtable
define internal void @_ZL13ucvector_initPhm(ptr dead_on_unwind noalias writable sret(%struct.ucvector) align 8 %0, ptr noundef %1, i64 noundef %2) #3 {
  %4 = alloca ptr, align 8
  %5 = alloca i64, align 8
  store ptr %1, ptr %4, align 8, !tbaa !11
  store i64 %2, ptr %5, align 8, !tbaa !17
  %6 = load ptr, ptr %4, align 8, !tbaa !11
  %7 = getelementptr inbounds nuw %struct.ucvector, ptr %0, i32 0, i32 0
  store ptr %6, ptr %7, align 8, !tbaa !61
  %8 = load i64, ptr %5, align 8, !tbaa !17
  %9 = getelementptr inbounds nuw %struct.ucvector, ptr %0, i32 0, i32 1
  store i64 %8, ptr %9, align 8, !tbaa !63
  %10 = getelementptr inbounds nuw %struct.ucvector, ptr %0, i32 0, i32 2
  store i64 %8, ptr %10, align 8, !tbaa !64
  ret void
}

; Function Attrs: mustprogress uwtable
define noundef i32 @_Z23lodepng_zlib_decompressPPhPmPKhmPK25LodePNGDecompressSettings(ptr noundef %0, ptr noundef %1, ptr noundef %2, i64 noundef %3, ptr noundef %4) #0 {
  %6 = alloca ptr, align 8
  %7 = alloca ptr, align 8
  %8 = alloca ptr, align 8
  %9 = alloca i64, align 8
  %10 = alloca ptr, align 8
  %11 = alloca %struct.ucvector, align 8
  %12 = alloca i32, align 4
  store ptr %0, ptr %6, align 8, !tbaa !3
  store ptr %1, ptr %7, align 8, !tbaa !9
  store ptr %2, ptr %8, align 8, !tbaa !11
  store i64 %3, ptr %9, align 8, !tbaa !17
  store ptr %4, ptr %10, align 8, !tbaa !59
  call void @llvm.lifetime.start.p0(i64 24, ptr %11) #17
  %13 = load ptr, ptr %6, align 8, !tbaa !3
  %14 = load ptr, ptr %13, align 8, !tbaa !11
  %15 = load ptr, ptr %7, align 8, !tbaa !9
  %16 = load i64, ptr %15, align 8, !tbaa !17
  call void @_ZL13ucvector_initPhm(ptr dead_on_unwind writable sret(%struct.ucvector) align 8 %11, ptr noundef %14, i64 noundef %16)
  call void @llvm.lifetime.start.p0(i64 4, ptr %12) #17
  %17 = load ptr, ptr %8, align 8, !tbaa !11
  %18 = load i64, ptr %9, align 8, !tbaa !17
  %19 = load ptr, ptr %10, align 8, !tbaa !59
  %20 = call noundef i32 @_ZL24lodepng_zlib_decompressvP8ucvectorPKhmPK25LodePNGDecompressSettings(ptr noundef %11, ptr noundef %17, i64 noundef %18, ptr noundef %19)
  store i32 %20, ptr %12, align 4, !tbaa !15
  %21 = getelementptr inbounds nuw %struct.ucvector, ptr %11, i32 0, i32 0
  %22 = load ptr, ptr %21, align 8, !tbaa !61
  %23 = load ptr, ptr %6, align 8, !tbaa !3
  store ptr %22, ptr %23, align 8, !tbaa !11
  %24 = getelementptr inbounds nuw %struct.ucvector, ptr %11, i32 0, i32 1
  %25 = load i64, ptr %24, align 8, !tbaa !63
  %26 = load ptr, ptr %7, align 8, !tbaa !9
  store i64 %25, ptr %26, align 8, !tbaa !17
  %27 = load i32, ptr %12, align 4, !tbaa !15
  call void @llvm.lifetime.end.p0(i64 4, ptr %12) #17
  call void @llvm.lifetime.end.p0(i64 24, ptr %11) #17
  ret i32 %27
}