; Function Attrs: mustprogress uwtable
define noundef i32 @_Z23lodepng_zlib_decompressPPhPmPKhmPK25LodePNGDecompressSettings(ptr noundef captures(none) %0, ptr noundef captures(none) %1, ptr noundef %2, i64 noundef %3, ptr noundef %4) local_unnamed_addr #5 {
  %6 = alloca %struct.ucvector, align 8
  call void @llvm.lifetime.start.p0(i64 24, ptr nonnull %6) #28
  %7 = load ptr, ptr %0, align 8, !tbaa !7
  %8 = load i64, ptr %1, align 8, !tbaa !3
  store ptr %7, ptr %6, align 8, !tbaa !53, !alias.scope !158
  %9 = getelementptr inbounds nuw i8, ptr %6, i64 8
  store i64 %8, ptr %9, align 8, !tbaa !58, !alias.scope !158
  %10 = getelementptr inbounds nuw i8, ptr %6, i64 16
  store i64 %8, ptr %10, align 8, !tbaa !59, !alias.scope !158
  %11 = call fastcc noundef i32 @_ZL24lodepng_zlib_decompressvP8ucvectorPKhmPK25LodePNGDecompressSettings(ptr noundef %6, ptr noundef %2, i64 noundef %3, ptr noundef %4)
  %12 = load ptr, ptr %6, align 8, !tbaa !53
  store ptr %12, ptr %0, align 8, !tbaa !7
  %13 = load i64, ptr %9, align 8, !tbaa !58
  store i64 %13, ptr %1, align 8, !tbaa !3
  call void @llvm.lifetime.end.p0(i64 24, ptr nonnull %6) #28
  ret i32 %11
}